target datalayout = "e-m:e-p270:32:32-p271:32:32-p272:64:64-i64:64-i128:128-f80:128-n8:16:32:64-S128"
target triple = "x86_64-pc-linux-gnu"

%struct.cbs_st = type { ptr, i64 }
%struct.ssl_st = type { i32, i16, i16, ptr, ptr, ptr, ptr, ptr, i32, i32, ptr, ptr, i32, i32, ptr, ptr, ptr, ptr, ptr, ptr, ptr, ptr, i32, i32, [32 x i8], ptr, ptr, ptr, ptr, ptr, ptr, ptr, i64, %struct.crypto_ex_data_st, ptr, i32, i32, i32, i32, i16, ptr, i32, i64, ptr, ptr, ptr, ptr, ptr, ptr, i32, i32, ptr, ptr, i8, i8, i32 }
%struct.crypto_ex_data_st = type { ptr }
%struct.ssl3_state_st = type { [8 x i8], [8 x i8], [32 x i8], [32 x i8], i8, i8, %struct.ssl3_buffer_st, %struct.ssl3_buffer_st, %struct.ssl3_record_st, i8, i32, i32, i32, i32, ptr, ptr, %struct.env_md_ctx_st, %struct.env_md_ctx_st, i8, i32, [2 x i8], i32, i8, i8, ptr, ptr, ptr, %struct.anon, [64 x i8], i8, [64 x i8], i8, i32, i32, ptr, i64, ptr, i64, i8, [64 x i8] }
%struct.ssl3_buffer_st = type { ptr, i16, i16, i16 }
%struct.ssl3_record_st = type { i8, i16, ptr }
%struct.env_md_ctx_st = type { ptr, ptr, ptr, ptr }
%struct.anon = type { [64 x i8], i32, [64 x i8], i32, i64, i32, ptr, i32, i32, %union.anon, %union.anon.0, i8, i32, ptr, ptr, i64, ptr, i8, i8, i8, i8, i32, i8, ptr, i64, i8, ptr, i8, i8, i8, %struct.ssl_ecdh_ctx_st, ptr, i16 }
%union.anon = type { i32 }
%union.anon.0 = type { i16 }
%struct.ssl_ecdh_ctx_st = type { ptr, ptr }
%struct.ssl_ctx_st = type { ptr, %union.crypto_mutex_st, i16, i16, ptr, ptr, ptr, ptr, ptr, ptr, i64, ptr, ptr, i32, i32, i64, ptr, ptr, ptr, i32, ptr, ptr, ptr, ptr, ptr, ptr, %struct.crypto_ex_data_st, ptr, ptr, ptr, ptr, i32, i32, i32, ptr, ptr, ptr, i32, i32, [32 x i8], ptr, ptr, ptr, ptr, i16, ptr, ptr, [16 x i8], [16 x i8], [16 x i8], ptr, ptr, ptr, ptr, i8, ptr, ptr, ptr, ptr, ptr, ptr, ptr, i32, ptr, i64, ptr, ptr, ptr, i64, ptr, i64, ptr, ptr, i8, ptr, i32 }
%union.crypto_mutex_st = type { double, [48 x i8] }

; Function Attrs: nounwind uwtable
define internal i32 @ext_alpn_parse_clienthello(ptr noundef %0, ptr noundef %1, ptr noundef %2) #0 {
  %4 = alloca i32, align 4
  %5 = alloca ptr, align 8
  %6 = alloca ptr, align 8
  %7 = alloca ptr, align 8
  %8 = alloca %struct.cbs_st, align 8
  %9 = alloca i32, align 4
  %10 = alloca %struct.cbs_st, align 8
  %11 = alloca %struct.cbs_st, align 8
  %12 = alloca ptr, align 8
  %13 = alloca i8, align 1
  store ptr %0, ptr %5, align 8, !tbaa !69
  store ptr %1, ptr %6, align 8, !tbaa !55
  store ptr %2, ptr %7, align 8, !tbaa !52
  %14 = load ptr, ptr %7, align 8, !tbaa !52
  %15 = icmp eq ptr %14, null
  br i1 %15, label %16, label %17

16:                                               ; preds = %3
  store i32 1, ptr %4, align 4
  br label %114

17:                                               ; preds = %3
  %18 = load ptr, ptr %5, align 8, !tbaa !69
  %19 = getelementptr inbounds nuw %struct.ssl_st, ptr %18, i32 0, i32 31
  %20 = load ptr, ptr %19, align 8, !tbaa !145
  %21 = getelementptr inbounds nuw %struct.ssl_ctx_st, ptr %20, i32 0, i32 59
  %22 = load ptr, ptr %21, align 8, !tbaa !204
  %23 = icmp eq ptr %22, null
  br i1 %23, label %32, label %24

24:                                               ; preds = %17
  %25 = load ptr, ptr %5, align 8, !tbaa !69
  %26 = getelementptr inbounds nuw %struct.ssl_st, ptr %25, i32 0, i32 14
  %27 = load ptr, ptr %26, align 8, !tbaa !75
  %28 = getelementptr inbounds nuw %struct.ssl3_state_st, ptr %27, i32 0, i32 5
  %29 = load i8, ptr %28, align 1, !tbaa !181
  %30 = sext i8 %29 to i32
  %31 = icmp ne i32 %30, 0
  br i1 %31, label %32, label %33

32:                                               ; preds = %24, %17
  store i32 1, ptr %4, align 4
  br label %114

33:                                               ; preds = %24
  %34 = load ptr, ptr %5, align 8, !tbaa !69
  %35 = getelementptr inbounds nuw %struct.ssl_st, ptr %34, i32 0, i32 14
  %36 = load ptr, ptr %35, align 8, !tbaa !75
  %37 = getelementptr inbounds nuw %struct.ssl3_state_st, ptr %36, i32 0, i32 33
  store i32 0, ptr %37, align 8, !tbaa !191
  call void @llvm.lifetime.start.p0(i64 16, ptr %8) #8
  %38 = load ptr, ptr %7, align 8, !tbaa !52
  %39 = call i32 @CBS_get_u16_length_prefixed(ptr noundef %38, ptr noundef %8)
  %40 = icmp ne i32 %39, 0
  br i1 %40, label %41, label %48

41:                                               ; preds = %33
  %42 = load ptr, ptr %7, align 8, !tbaa !52
  %43 = call i64 @CBS_len(ptr noundef %42)
  %44 = icmp ne i64 %43, 0
  br i1 %44, label %48, label %45

45:                                               ; preds = %41
  %46 = call i64 @CBS_len(ptr noundef %8)
  %47 = icmp ult i64 %46, 2
  br i1 %47, label %48, label %49

48:                                               ; preds = %45, %41, %33
  store i32 0, ptr %4, align 4
  store i32 1, ptr %9, align 4
  br label %113

49:                                               ; preds = %45
  call void @llvm.lifetime.start.p0(i64 16, ptr %10) #8
  call void @llvm.memcpy.p0.p0.i64(ptr align 8 %10, ptr align 8 %8, i64 16, i1 false), !tbaa.struct !54
  br label %50

50:                                               ; preds = %63, %49
  %51 = call i64 @CBS_len(ptr noundef %10)
  %52 = icmp ugt i64 %51, 0
  br i1 %52, label %53, label %64

53:                                               ; preds = %50
  call void @llvm.lifetime.start.p0(i64 16, ptr %11) #8
  %54 = call i32 @CBS_get_u8_length_prefixed(ptr noundef %10, ptr noundef %11)
  %55 = icmp ne i32 %54, 0
  br i1 %55, label %56, label %59

56:                                               ; preds = %53
  %57 = call i64 @CBS_len(ptr noundef %11)
  %58 = icmp eq i64 %57, 0
  br i1 %58, label %59, label %60

59:                                               ; preds = %56, %53
  store i32 0, ptr %4, align 4
  store i32 1, ptr %9, align 4
  br label %61

60:                                               ; preds = %56
  store i32 0, ptr %9, align 4
  br label %61

61:                                               ; preds = %60, %59
  call void @llvm.lifetime.end.p0(i64 16, ptr %11) #8
  %62 = load i32, ptr %9, align 4
  switch i32 %62, label %112 [
    i32 0, label %63
  ]

63:                                               ; preds = %61
  br label %50, !llvm.loop !205

64:                                               ; preds = %50
  call void @llvm.lifetime.start.p0(i64 8, ptr %12) #8
  call void @llvm.lifetime.start.p0(i64 1, ptr %13) #8
  %65 = load ptr, ptr %5, align 8, !tbaa !69
  %66 = getelementptr inbounds nuw %struct.ssl_st, ptr %65, i32 0, i32 31
  %67 = load ptr, ptr %66, align 8, !tbaa !145
  %68 = getelementptr inbounds nuw %struct.ssl_ctx_st, ptr %67, i32 0, i32 59
  %69 = load ptr, ptr %68, align 8, !tbaa !204
  %70 = load ptr, ptr %5, align 8, !tbaa !69
  %71 = call ptr @CBS_data(ptr noundef %8)
  %72 = call i64 @CBS_len(ptr noundef %8)
  %73 = trunc i64 %72 to i32
  %74 = load ptr, ptr %5, align 8, !tbaa !69
  %75 = getelementptr inbounds nuw %struct.ssl_st, ptr %74, i32 0, i32 31
  %76 = load ptr, ptr %75, align 8, !tbaa !145
  %77 = getelementptr inbounds nuw %struct.ssl_ctx_st, ptr %76, i32 0, i32 60
  %78 = load ptr, ptr %77, align 8, !tbaa !206
  %79 = call i32 %69(ptr noundef %70, ptr noundef %12, ptr noundef %13, ptr noundef %71, i32 noundef %73, ptr noundef %78)
  %80 = icmp eq i32 %79, 0
  br i1 %80, label %81, label %110

81:                                               ; preds = %64
  %82 = load ptr, ptr %5, align 8, !tbaa !69
  %83 = getelementptr inbounds nuw %struct.ssl_st, ptr %82, i32 0, i32 14
  %84 = load ptr, ptr %83, align 8, !tbaa !75
  %85 = getelementptr inbounds nuw %struct.ssl3_state_st, ptr %84, i32 0, i32 36
  %86 = load ptr, ptr %85, align 8, !tbaa !193
  call void @free(ptr noundef %86) #8
  %87 = load ptr, ptr %12, align 8, !tbaa !55
  %88 = load i8, ptr %13, align 1, !tbaa !103
  %89 = zext i8 %88 to i64
  %90 = call ptr @BUF_memdup(ptr noundef %87, i64 noundef %89)
  %91 = load ptr, ptr %5, align 8, !tbaa !69
  %92 = getelementptr inbounds nuw %struct.ssl_st, ptr %91, i32 0, i32 14
  %93 = load ptr, ptr %92, align 8, !tbaa !75
  %94 = getelementptr inbounds nuw %struct.ssl3_state_st, ptr %93, i32 0, i32 36
  store ptr %90, ptr %94, align 8, !tbaa !193
  %95 = load ptr, ptr %5, align 8, !tbaa !69
  %96 = getelementptr inbounds nuw %struct.ssl_st, ptr %95, i32 0, i32 14
  %97 = load ptr, ptr %96, align 8, !tbaa !75
  %98 = getelementptr inbounds nuw %struct.ssl3_state_st, ptr %97, i32 0, i32 36
  %99 = load ptr, ptr %98, align 8, !tbaa !193
  %100 = icmp eq ptr %99, null
  br i1 %100, label %101, label %103

101:                                              ; preds = %81
  %102 = load ptr, ptr %6, align 8, !tbaa !55
  store i8 80, ptr %102, align 1, !tbaa !103
  store i32 0, ptr %4, align 4
  store i32 1, ptr %9, align 4
  br label %111

103:                                              ; preds = %81
  %104 = load i8, ptr %13, align 1, !tbaa !103
  %105 = zext i8 %104 to i64
  %106 = load ptr, ptr %5, align 8, !tbaa !69
  %107 = getelementptr inbounds nuw %struct.ssl_st, ptr %106, i32 0, i32 14
  %108 = load ptr, ptr %107, align 8, !tbaa !75
  %109 = getelementptr inbounds nuw %struct.ssl3_state_st, ptr %108, i32 0, i32 37
  store i64 %105, ptr %109, align 8, !tbaa !207
  br label %110

110:                                              ; preds = %103, %64
  store i32 1, ptr %4, align 4
  store i32 1, ptr %9, align 4
  br label %111

111:                                              ; preds = %110, %101
  call void @llvm.lifetime.end.p0(i64 1, ptr %13) #8
  call void @llvm.lifetime.end.p0(i64 8, ptr %12) #8
  br label %112

112:                                              ; preds = %111, %61
  call void @llvm.lifetime.end.p0(i64 16, ptr %10) #8
  br label %113

113:                                              ; preds = %112, %48
  call void @llvm.lifetime.end.p0(i64 16, ptr %8) #8
  br label %114

114:                                              ; preds = %113, %32, %16
  %115 = load i32, ptr %4, align 4
  ret i32 %115
}