; Function Attrs: nounwind uwtable
define internal range(i32 0, 2) i32 @ext_alpn_parse_clienthello(ptr noundef %0, ptr noundef writeonly captures(none) %1, ptr noundef %2) #0 {
  %4 = alloca %struct.cbs_st, align 8
  %5 = alloca %struct.cbs_st, align 8
  %6 = alloca %struct.cbs_st, align 8
  %7 = alloca ptr, align 8
  %8 = alloca i8, align 1
  %9 = icmp eq ptr %2, null
  br i1 %9, label %67, label %10

10:                                               ; preds = %3
  %11 = getelementptr inbounds nuw i8, ptr %0, i64 232
  %12 = load ptr, ptr %11, align 8, !tbaa !122
  %13 = getelementptr inbounds nuw i8, ptr %12, i64 536
  %14 = load ptr, ptr %13, align 8, !tbaa !173
  %15 = icmp eq ptr %14, null
  br i1 %15, label %67, label %16

16:                                               ; preds = %10
  %17 = getelementptr inbounds nuw i8, ptr %0, i64 80
  %18 = load ptr, ptr %17, align 8, !tbaa !58
  %19 = getelementptr inbounds nuw i8, ptr %18, i64 81
  %20 = load i8, ptr %19, align 1, !tbaa !150
  %.not = icmp eq i8 %20, 0
  br i1 %.not, label %21, label %67

21:                                               ; preds = %16
  %22 = getelementptr inbounds nuw i8, ptr %18, i64 728
  store i32 0, ptr %22, align 8, !tbaa !160
  call void @llvm.lifetime.start.p0(i64 16, ptr nonnull %4) #21
  %23 = call i32 @CBS_get_u16_length_prefixed(ptr noundef nonnull %2, ptr noundef nonnull %4) #21
  %.not17 = icmp eq i32 %23, 0
  br i1 %.not17, label %66, label %24

24:                                               ; preds = %21
  %25 = call i64 @CBS_len(ptr noundef nonnull %2) #21
  %.not18 = icmp eq i64 %25, 0
  br i1 %.not18, label %26, label %66

26:                                               ; preds = %24
  %27 = call i64 @CBS_len(ptr noundef nonnull %4) #21
  %28 = icmp ult i64 %27, 2
  br i1 %28, label %66, label %29

29:                                               ; preds = %26
  call void @llvm.lifetime.start.p0(i64 16, ptr nonnull %5) #21
  call void @llvm.memcpy.p0.p0.i64(ptr noundef nonnull align 8 dereferenceable(16) %5, ptr noundef nonnull align 8 dereferenceable(16) %4, i64 16, i1 false), !tbaa.struct !50
  %30 = call i64 @CBS_len(ptr noundef nonnull %5) #21
  %.not1921 = icmp eq i64 %30, 0
  br i1 %.not1921, label %._crit_edge, label %.lr.ph

.lr.ph:                                           ; preds = %29, %.critedge
  call void @llvm.lifetime.start.p0(i64 16, ptr nonnull %6) #21
  %31 = call i32 @CBS_get_u8_length_prefixed(ptr noundef nonnull %5, ptr noundef nonnull %6) #21
  %.not20 = icmp eq i32 %31, 0
  br i1 %.not20, label %36, label %32

32:                                               ; preds = %.lr.ph
  %33 = call i64 @CBS_len(ptr noundef nonnull %6) #21
  %34 = icmp eq i64 %33, 0
  br i1 %34, label %36, label %.critedge

.critedge:                                        ; preds = %32
  call void @llvm.lifetime.end.p0(i64 16, ptr nonnull %6) #21
  %35 = call i64 @CBS_len(ptr noundef nonnull %5) #21
  %.not19 = icmp eq i64 %35, 0
  br i1 %.not19, label %._crit_edge, label %.lr.ph

36:                                               ; preds = %.lr.ph, %32
  call void @llvm.lifetime.end.p0(i64 16, ptr nonnull %6) #21
  br label %65, !llvm.loop !174

._crit_edge:                                      ; preds = %.critedge, %29
  call void @llvm.lifetime.start.p0(i64 8, ptr nonnull %7) #21
  call void @llvm.lifetime.start.p0(i64 1, ptr nonnull %8) #21
  %37 = load ptr, ptr %11, align 8, !tbaa !122
  %38 = getelementptr inbounds nuw i8, ptr %37, i64 536
  %39 = load ptr, ptr %38, align 8, !tbaa !173
  %40 = call ptr @CBS_data(ptr noundef nonnull %4) #21
  %41 = call i64 @CBS_len(ptr noundef nonnull %4) #21
  %42 = trunc i64 %41 to i32
  %43 = load ptr, ptr %11, align 8, !tbaa !122
  %44 = getelementptr inbounds nuw i8, ptr %43, i64 544
  %45 = load ptr, ptr %44, align 8, !tbaa !175
  %46 = call i32 %39(ptr noundef %0, ptr noundef nonnull %7, ptr noundef nonnull %8, ptr noundef %40, i32 noundef %42, ptr noundef %45) #21
  %47 = icmp eq i32 %46, 0
  br i1 %47, label %48, label %64

48:                                               ; preds = %._crit_edge
  %49 = load ptr, ptr %17, align 8, !tbaa !58
  %50 = getelementptr inbounds nuw i8, ptr %49, i64 752
  %51 = load ptr, ptr %50, align 8, !tbaa !162
  call void @free(ptr noundef %51) #21
  %52 = load ptr, ptr %7, align 8, !tbaa !51
  %53 = load i8, ptr %8, align 1, !tbaa !90
  %54 = zext i8 %53 to i64
  %55 = call ptr @BUF_memdup(ptr noundef %52, i64 noundef %54) #21
  %56 = load ptr, ptr %17, align 8, !tbaa !58
  %57 = getelementptr inbounds nuw i8, ptr %56, i64 752
  store ptr %55, ptr %57, align 8, !tbaa !162
  %58 = icmp eq ptr %55, null
  br i1 %58, label %59, label %60

59:                                               ; preds = %48
  store i8 80, ptr %1, align 1, !tbaa !90
  br label %64

60:                                               ; preds = %48
  %61 = load i8, ptr %8, align 1, !tbaa !90
  %62 = zext i8 %61 to i64
  %63 = getelementptr inbounds nuw i8, ptr %56, i64 760
  store i64 %62, ptr %63, align 8, !tbaa !176
  br label %64

64:                                               ; preds = %._crit_edge, %60, %59
  %.5 = phi i32 [ 0, %59 ], [ 1, %60 ], [ 1, %._crit_edge ]
  call void @llvm.lifetime.end.p0(i64 1, ptr nonnull %8) #21
  call void @llvm.lifetime.end.p0(i64 8, ptr nonnull %7) #21
  br label %65

65:                                               ; preds = %36, %64
  %.4 = phi i32 [ 0, %36 ], [ %.5, %64 ]
  call void @llvm.lifetime.end.p0(i64 16, ptr nonnull %5) #21
  br label %66

66:                                               ; preds = %21, %24, %26, %65
  %.1 = phi i32 [ %.4, %65 ], [ 0, %26 ], [ 0, %24 ], [ 0, %21 ]
  call void @llvm.lifetime.end.p0(i64 16, ptr nonnull %4) #21
  br label %67

67:                                               ; preds = %10, %16, %3, %66
  %.015 = phi i32 [ %.1, %66 ], [ 1, %3 ], [ 1, %16 ], [ 1, %10 ]
  ret i32 %.015
}